(dp1
S'output'
p2
S"<type 'exceptions.TypeError'> __call__() takes at most 3 arguments (4 given)"
p3
sS'layer'
p4
S'C:\\Users\\standalone\\Documents\\pluralsight-web2py\\web2py\\applications\\pluralsight\\controllers/contacts.py'
p5
sS'code'
p6
S'# -*- coding: utf-8 -*-\n# try something like\ndef index(): return dict(message="hello from contacts.py")\n\ndef data():\n    rows = db(db.contacts).select()\n    return locals()\n\ndef filter():\n    # get count\n    rows_count = db(db.contacts).count()\n    # get all records\n    rows_all = db(db.contacts.last_name, db.contacts.first_name, db.contacts.state_name).select()\n    # get all records\n    rows_sorted_by_name = db(db.contacts).select(orderby=db.contacts.last_name | db.contacts.first_name)\n    # filter, show only those in ACT department\n    rows_startswith = db(db.contacts.last_name.startswith(\'A\')).select(orderby=db.contacts.state_name | db.contacts.last_name)\n    # filter, show on those with id greater than 5\n    rows_by_state = db(db.contacts.state_name==\'CA\').select(orderby=db.contacts.last_name | db.contacts.first_name)\n    # boolean logic:  & (and); | (or)\n    rows_combo = db((db.contacts.state_name==\'CA\') & (db.contacts.last_name.startswith(\'A\'))).select(orderby=db.contacts.last_name)\n    return locals()\n\nresponse._vars=response._caller(filter)\n'
p7
sS'snapshot'
p8
(dp9
S'exception'
p10
(dp11
S'__hash__'
p12
S"<method-wrapper '__hash__' of exceptions.TypeError object>"
p13
sS'__setattr__'
p14
S"<method-wrapper '__setattr__' of exceptions.TypeError object>"
p15
sS'__reduce_ex__'
p16
S'<built-in method __reduce_ex__ of exceptions.TypeError object>'
p17
sS'__getslice__'
p18
S"<method-wrapper '__getslice__' of exceptions.TypeError object>"
p19
sS'__getitem__'
p20
S"<method-wrapper '__getitem__' of exceptions.TypeError object>"
p21
sS'__setstate__'
p22
S'<built-in method __setstate__ of exceptions.TypeError object>'
p23
sS'__reduce__'
p24
S'<built-in method __reduce__ of exceptions.TypeError object>'
p25
sS'__str__'
p26
S"<method-wrapper '__str__' of exceptions.TypeError object>"
p27
sS'__format__'
p28
S'<built-in method __format__ of exceptions.TypeError object>'
p29
sS'__getattribute__'
p30
S"<method-wrapper '__getattribute__' of exceptions.TypeError object>"
p31
sS'__class__'
p32
S"<type 'exceptions.TypeError'>"
p33
sS'__unicode__'
p34
S'<built-in method __unicode__ of exceptions.TypeError object>'
p35
sS'__delattr__'
p36
S"<method-wrapper '__delattr__' of exceptions.TypeError object>"
p37
sS'__subclasshook__'
p38
S'<built-in method __subclasshook__ of type object>'
p39
sS'__repr__'
p40
S"<method-wrapper '__repr__' of exceptions.TypeError object>"
p41
sS'args'
p42
S"('__call__() takes at most 3 arguments (4 given)',)"
p43
sS'__dict__'
p44
S'{}'
p45
sS'__sizeof__'
p46
S'<built-in method __sizeof__ of exceptions.TypeError object>'
p47
sS'__doc__'
p48
S"'Inappropriate argument type.'"
p49
sS'__init__'
p50
S"<method-wrapper '__init__' of exceptions.TypeError object>"
p51
sS'__new__'
p52
S'<built-in method __new__ of type object>'
p53
ssS'evalue'
p54
S'__call__() takes at most 3 arguments (4 given)'
p55
sS'request'
p56
cgluon.html
XML_unpickle
p57
(S'sY^\x00\x00<div><table><tr><td style="font-weight:bold;vertical-align:top;">ajax</td><td style="vertical-align:top;">:</td><td><div>False</div></td></tr><tr><td style="font-weight:bold;vertical-align:top;">application</td><td style="vertical-align:top;">:</td><td><div>pluralsight</div></td></tr><tr><td style="font-weight:bold;vertical-align:top;">args</td><td style="vertical-align:top;">:</td><td><div><table></table></div></td></tr><tr><td style="font-weight:bold;vertical-align:top;">cid</td><td style="vertical-align:top;">:</td><td><div>None</div></td></tr><tr><td style="font-weight:bold;vertical-align:top;">client</td><td style="vertical-align:top;">:</td><td><div>127.0.0.1</div></td></tr><tr><td style="font-weight:bold;vertical-align:top;">controller</td><td style="vertical-align:top;">:</td><td><div>contacts</div></td></tr><tr><td style="font-weight:bold;vertical-align:top;">cookies</td><td style="vertical-align:top;">:</td><td><div><table><tr><td style="font-weight:bold;vertical-align:top;">session_id_admin</td><td style="vertical-align:top;">:</td><td><div>127.0.0.1-28f14c64-d0f3-4c32-98d1-3a838d4f6f5e<table><tr><td style="font-weight:bold;vertical-align:top;">comment</td><td style="vertical-align:top;">:</td><td><div></div></td></tr><tr><td style="font-weight:bold;vertical-align:top;">domain</td><td style="vertical-align:top;">:</td><td><div></div></td></tr><tr><td style="font-weight:bold;vertical-align:top;">expires</td><td style="vertical-align:top;">:</td><td><div></div></td></tr><tr><td style="font-weight:bold;vertical-align:top;">httponly</td><td style="vertical-align:top;">:</td><td><div></div></td></tr><tr><td style="font-weight:bold;vertical-align:top;">max-age</td><td style="vertical-align:top;">:</td><td><div></div></td></tr><tr><td style="font-weight:bold;vertical-align:top;">path</td><td style="vertical-align:top;">:</td><td><div></div></td></tr><tr><td style="font-weight:bold;vertical-align:top;">secure</td><td style="vertical-align:top;">:</td><td><div></div></td></tr><tr><td style="font-weight:bold;vertical-align:top;">version</td><td style="vertical-align:top;">:</td><td><div></div></td></tr></table></div></td></tr><tr><td style="font-weight:bold;vertical-align:top;">session_id_pluralsight</td><td style="vertical-align:top;">:</td><td><div>127.0.0.1-45ad30a8-f95e-4912-a45f-cdae65d8b04a<table><tr><td style="font-weight:bold;vertical-align:top;">comment</td><td style="vertical-align:top;">:</td><td><div></div></td></tr><tr><td style="font-weight:bold;vertical-align:top;">domain</td><td style="vertical-align:top;">:</td><td><div></div></td></tr><tr><td style="font-weight:bold;vertical-align:top;">expires</td><td style="vertical-align:top;">:</td><td><div></div></td></tr><tr><td style="font-weight:bold;vertical-align:top;">httponly</td><td style="vertical-align:top;">:</td><td><div></div></td></tr><tr><td style="font-weight:bold;vertical-align:top;">max-age</td><td style="vertical-align:top;">:</td><td><div></div></td></tr><tr><td style="font-weight:bold;vertical-align:top;">path</td><td style="vertical-align:top;">:</td><td><div></div></td></tr><tr><td style="font-weight:bold;vertical-align:top;">secure</td><td style="vertical-align:top;">:</td><td><div></div></td></tr><tr><td style="font-weight:bold;vertical-align:top;">version</td><td style="vertical-align:top;">:</td><td><div></div></td></tr></table></div></td></tr><tr><td style="font-weight:bold;vertical-align:top;">session_id_welcome</td><td style="vertical-align:top;">:</td><td><div>127.0.0.1-677f8493-8a69-42f0-94b6-80bab501b21a<table><tr><td style="font-weight:bold;vertical-align:top;">comment</td><td style="vertical-align:top;">:</td><td><div></div></td></tr><tr><td style="font-weight:bold;vertical-align:top;">domain</td><td style="vertical-align:top;">:</td><td><div></div></td></tr><tr><td style="font-weight:bold;vertical-align:top;">expires</td><td style="vertical-align:top;">:</td><td><div></div></td></tr><tr><td style="font-weight:bold;vertical-align:top;">httponly</td><td style="vertical-align:top;">:</td><td><div></div></td></tr><tr><td style="font-weight:bold;vertical-align:top;">max-age</td><td style="vertical-align:top;">:</td><td><div></div></td></tr><tr><td style="font-weight:bold;vertical-align:top;">path</td><td style="vertical-align:top;">:</td><td><div></div></td></tr><tr><td style="font-weight:bold;vertical-align:top;">secure</td><td style="vertical-align:top;">:</td><td><div></div></td></tr><tr><td style="font-weight:bold;vertical-align:top;">version</td><td style="vertical-align:top;">:</td><td><div></div></td></tr></table></div></td></tr></table></div></td></tr><tr><td style="font-weight:bold;vertical-align:top;">env</td><td style="vertical-align:top;">:</td><td><div><table><tr><td style="font-weight:bold;vertical-align:top;">HTTP_ACCEPT</td><td style="vertical-align:top;">:</td><td><div>text/html,application/xhtml+xml,application/xml;q=0.9,*/*;q=0.8</div></td></tr><tr><td style="font-weight:bold;vertical-align:top;">HTTP_ACCEPT_ENCODING</td><td style="vertical-align:top;">:</td><td><div>gzip, deflate</div></td></tr><tr><td style="font-weight:bold;vertical-align:top;">HTTP_ACCEPT_LANGUAGE</td><td style="vertical-align:top;">:</td><td><div>en-US,en;q=0.5</div></td></tr><tr><td style="font-weight:bold;vertical-align:top;">HTTP_CACHE_CONTROL</td><td style="vertical-align:top;">:</td><td><div>max-age=0</div></td></tr><tr><td style="font-weight:bold;vertical-align:top;">HTTP_CONNECTION</td><td style="vertical-align:top;">:</td><td><div>keep-alive</div></td></tr><tr><td style="font-weight:bold;vertical-align:top;">HTTP_COOKIE</td><td style="vertical-align:top;">:</td><td><div>session_id_welcome=127.0.0.1-677f8493-8a69-42f0-94b6-80bab501b21a; session_id_admin=127.0.0.1-28f14c64-d0f3-4c32-98d1-3a838d4f6f5e; session_id_pluralsight=127.0.0.1-45ad30a8-f95e-4912-a45f-cdae65d8b04a</div></td></tr><tr><td style="font-weight:bold;vertical-align:top;">HTTP_DNT</td><td style="vertical-align:top;">:</td><td><div>1</div></td></tr><tr><td style="font-weight:bold;vertical-align:top;">HTTP_HOST</td><td style="vertical-align:top;">:</td><td><div>127.0.0.1:8000</div></td></tr><tr><td style="font-weight:bold;vertical-align:top;">HTTP_USER_AGENT</td><td style="vertical-align:top;">:</td><td><div>Mozilla/5.0 (Windows NT 6.1; rv:38.0) Gecko/20100101 Firefox/38.0</div></td></tr><tr><td style="font-weight:bold;vertical-align:top;">PATH_INFO</td><td style="vertical-align:top;">:</td><td><div>/pluralsight/contacts/filter</div></td></tr><tr><td style="font-weight:bold;vertical-align:top;">QUERY_STRING</td><td style="vertical-align:top;">:</td><td><div></div></td></tr><tr><td style="font-weight:bold;vertical-align:top;">REMOTE_ADDR</td><td style="vertical-align:top;">:</td><td><div>127.0.0.1</div></td></tr><tr><td style="font-weight:bold;vertical-align:top;">REMOTE_PORT</td><td style="vertical-align:top;">:</td><td><div>50930</div></td></tr><tr><td style="font-weight:bold;vertical-align:top;">REQUEST_METHOD</td><td style="vertical-align:top;">:</td><td><div>GET</div></td></tr><tr><td style="font-weight:bold;vertical-align:top;">SCRIPT_NAME</td><td style="vertical-align:top;">:</td><td><div></div></td></tr><tr><td style="font-weight:bold;vertical-align:top;">SERVER_NAME</td><td style="vertical-align:top;">:</td><td><div>M063575</div></td></tr><tr><td style="font-weight:bold;vertical-align:top;">SERVER_PORT</td><td style="vertical-align:top;">:</td><td><div>8000</div></td></tr><tr><td style="font-weight:bold;vertical-align:top;">SERVER_PROTOCOL</td><td style="vertical-align:top;">:</td><td><div>HTTP/1.1</div></td></tr><tr><td style="font-weight:bold;vertical-align:top;">SERVER_SOFTWARE</td><td style="vertical-align:top;">:</td><td><div>Rocket 1.2.6</div></td></tr><tr><td style="font-weight:bold;vertical-align:top;">app_folders</td><td style="vertical-align:top;">:</td><td><div>set([&#x27;C:\\\\Users\\\\standalone\\\\Documents\\\\pluralsight-web2py\\\\web2py\\\\applications\\\\welcome\\\\&#x27;, &#x27;C:\\\\Users\\\\standalone\\\\Documents\\\\pluralsight-web2py\\\\web2py\\\\applications\\\\admin\\\\&#x27;, &#x27;C:\\\\Users\\\\standalone\\\\Documents\\\\pluralsight-web2py\\\\web2py\\\\applications\\\\pluralsight\\\\&#x27;])</div></td></tr><tr><td style="font-weight:bold;vertical-align:top;">applications_parent</td><td style="vertical-align:top;">:</td><td><div>C:\\Users\\standalone\\Documents\\pluralsight-web2py\\web2py</div></td></tr><tr><td style="font-weight:bold;vertical-align:top;">cmd_args</td><td style="vertical-align:top;">:</td><td><div><table></table></div></td></tr><tr><td style="font-weight:bold;vertical-align:top;">cmd_options</td><td style="vertical-align:top;">:</td><td><div>&lt;Values at 0x2903530: {&#x27;verbose&#x27;: False, &#x27;ip&#x27;: &#x27;127.0.0.1&#x27;, &#x27;debuglevel&#x27;: 30, &#x27;with_scheduler&#x27;: False, &#x27;ips&#x27;: [&#x27;192.168.2.13&#x27;, &#x27;::1&#x27;], &#x27;shutdown_timeout&#x27;: 5, &#x27;taskbar&#x27;: False, &#x27;with_coverage&#x27;: False, &#x27;scheduler_groups&#x27;: None, &#x27;port&#x27;: 8000, &#x27;maxthreads&#x27;: None, &#x27;softcron&#x27;: False, &#x27;server_name&#x27;: &#x27;M063575&#x27;, &#x27;bpython&#x27;: False, &#x27;nogui&#x27;: False, &#x27;pid_filename&#x27;: &#x27;httpserver.pid&#x27;, &#x27;print_errors&#x27;: False, &#x27;extcron&#x27;: False, &#x27;runcron&#x27;: False, &#x27;run_system_tests&#x27;: False, &#x27;test&#x27;: None, &#x27;folder&#x27;: &#x27;C:\\\\Users\\\\standalone\\\\Documents\\\\pluralsight-web2py\\\\web2py&#x27;, &#x27;config&#x27;: &#x27;&#x27;, &#x27;minthreads&#x27;: None, &#x27;shell&#x27;: None, &#x27;run&#x27;: &#x27;&#x27;, &#x27;log_filename&#x27;: &#x27;httpserver.log&#x27;, &#x27;profiler_dir&#x27;: None, &#x27;args&#x27;: [&#x27;&#x27;], &#x27;socket_timeout&#x27;: 5, &#x27;ssl_ca_certificate&#x27;: None, &#x27;scheduler&#x27;: None, &#x27;interfaces&#x27;: None, &#x27;ssl_private_key&#x27;: &#x27;&#x27;, &#x27;gae&#x27;: None, &#x27;password&#x27;: &#x27;&lt;ask&gt;&#x27;, &#x27;request_queue_size&#x27;: 5, &#x27;ssl_certificate&#x27;: &#x27;&#x27;, &#x27;cronjob&#x27;: False, &#x27;numthreads&#x27;: None, &#x27;quiet&#x27;: False, &#x27;import_models&#x27;: False, &#x27;timeout&#x27;: 10, &#x27;plain&#x27;: False, &#x27;nobanner&#x27;: False}&gt;</div></td></tr><tr><td style="font-weight:bold;vertical-align:top;">db_sessions</td><td style="vertical-align:top;">:</td><td><div>set([])</div></td></tr><tr><td style="font-weight:bold;vertical-align:top;">debugging</td><td style="vertical-align:top;">:</td><td><div>True</div></td></tr><tr><td style="font-weight:bold;vertical-align:top;">gluon_parent</td><td style="vertical-align:top;">:</td><td><div>C:\\Users\\standalone\\Documents\\pluralsight-web2py\\web2py</div></td></tr><tr><td style="font-weight:bold;vertical-align:top;">http_accept</td><td style="vertical-align:top;">:</td><td><div>text/html,application/xhtml+xml,application/xml;q=0.9,*/*;q=0.8</div></td></tr><tr><td style="font-weight:bold;vertical-align:top;">http_accept_encoding</td><td style="vertical-align:top;">:</td><td><div>gzip, deflate</div></td></tr><tr><td style="font-weight:bold;vertical-align:top;">http_accept_language</td><td style="vertical-align:top;">:</td><td><div>en-US,en;q=0.5</div></td></tr><tr><td style="font-weight:bold;vertical-align:top;">http_cache_control</td><td style="vertical-align:top;">:</td><td><div>max-age=0</div></td></tr><tr><td style="font-weight:bold;vertical-align:top;">http_connection</td><td style="vertical-align:top;">:</td><td><div>keep-alive</div></td></tr><tr><td style="font-weight:bold;vertical-align:top;">http_cookie</td><td style="vertical-align:top;">:</td><td><div>session_id_welcome=127.0.0.1-677f8493-8a69-42f0-94b6-80bab501b21a; session_id_admin=127.0.0.1-28f14c64-d0f3-4c32-98d1-3a838d4f6f5e; session_id_pluralsight=127.0.0.1-45ad30a8-f95e-4912-a45f-cdae65d8b04a</div></td></tr><tr><td style="font-weight:bold;vertical-align:top;">http_dnt</td><td style="vertical-align:top;">:</td><td><div>1</div></td></tr><tr><td style="font-weight:bold;vertical-align:top;">http_host</td><td style="vertical-align:top;">:</td><td><div>127.0.0.1:8000</div></td></tr><tr><td style="font-weight:bold;vertical-align:top;">http_user_agent</td><td style="vertical-align:top;">:</td><td><div>Mozilla/5.0 (Windows NT 6.1; rv:38.0) Gecko/20100101 Firefox/38.0</div></td></tr><tr><td style="font-weight:bold;vertical-align:top;">is_jython</td><td style="vertical-align:top;">:</td><td><div>False</div></td></tr><tr><td style="font-weight:bold;vertical-align:top;">is_pypy</td><td style="vertical-align:top;">:</td><td><div>False</div></td></tr><tr><td style="font-weight:bold;vertical-align:top;">is_source</td><td style="vertical-align:top;">:</td><td><div>False</div></td></tr><tr><td style="font-weight:bold;vertical-align:top;">local_hosts</td><td style="vertical-align:top;">:</td><td><div><table><tr><td><div>192.168.2.13</div></td></tr><tr><td><div>::ffff:127.0.0.1</div></td></tr><tr><td><div>::1</div></td></tr><tr><td><div>M063575</div></td></tr><tr><td><div>M063575.calegis.net</div></td></tr><tr><td><div>127.0.0.1</div></td></tr></table></div></td></tr><tr><td style="font-weight:bold;vertical-align:top;">path_info</td><td style="vertical-align:top;">:</td><td><div>/pluralsight/contacts/filter</div></td></tr><tr><td style="font-weight:bold;vertical-align:top;">query_string</td><td style="vertical-align:top;">:</td><td><div></div></td></tr><tr><td style="font-weight:bold;vertical-align:top;">remote_addr</td><td style="vertical-align:top;">:</td><td><div>127.0.0.1</div></td></tr><tr><td style="font-weight:bold;vertical-align:top;">remote_port</td><td style="vertical-align:top;">:</td><td><div>50930</div></td></tr><tr><td style="font-weight:bold;vertical-align:top;">request_method</td><td style="vertical-align:top;">:</td><td><div>GET</div></td></tr><tr><td style="font-weight:bold;vertical-align:top;">request_uri</td><td style="vertical-align:top;">:</td><td><div>/pluralsight/contacts/filter</div></td></tr><tr><td style="font-weight:bold;vertical-align:top;">script_name</td><td style="vertical-align:top;">:</td><td><div></div></td></tr><tr><td style="font-weight:bold;vertical-align:top;">server_name</td><td style="vertical-align:top;">:</td><td><div>M063575</div></td></tr><tr><td style="font-weight:bold;vertical-align:top;">server_port</td><td style="vertical-align:top;">:</td><td><div>8000</div></td></tr><tr><td style="font-weight:bold;vertical-align:top;">server_protocol</td><td style="vertical-align:top;">:</td><td><div>HTTP/1.1</div></td></tr><tr><td style="font-weight:bold;vertical-align:top;">server_software</td><td style="vertical-align:top;">:</td><td><div>Rocket 1.2.6</div></td></tr><tr><td style="font-weight:bold;vertical-align:top;">web2py_path</td><td style="vertical-align:top;">:</td><td><div>C:\\Users\\standalone\\Documents\\pluralsight-web2py\\web2py</div></td></tr><tr><td style="font-weight:bold;vertical-align:top;">web2py_version</td><td style="vertical-align:top;">:</td><td><div>2.10.4-stable+timestamp.2015.04.26.15.11.54</div></td></tr><tr><td style="font-weight:bold;vertical-align:top;">wsgi.errors</td><td style="vertical-align:top;">:</td><td><div>&lt;open file &#x27;&lt;stderr&gt;&#x27;, mode &#x27;w&#x27; at 0x0123D0D0&gt;</div></td></tr><tr><td style="font-weight:bold;vertical-align:top;">wsgi.file_wrapper</td><td style="vertical-align:top;">:</td><td><div>&lt;class wsgiref.util.FileWrapper at 0x02661500&gt;</div></td></tr><tr><td style="font-weight:bold;vertical-align:top;">wsgi.input</td><td style="vertical-align:top;">:</td><td><div>&lt;socket._fileobject object at 0x05F40BF0&gt;</div></td></tr><tr><td style="font-weight:bold;vertical-align:top;">wsgi.multiprocess</td><td style="vertical-align:top;">:</td><td><div>False</div></td></tr><tr><td style="font-weight:bold;vertical-align:top;">wsgi.multithread</td><td style="vertical-align:top;">:</td><td><div>True</div></td></tr><tr><td style="font-weight:bold;vertical-align:top;">wsgi.run_once</td><td style="vertical-align:top;">:</td><td><div>False</div></td></tr><tr><td style="font-weight:bold;vertical-align:top;">wsgi.url_scheme</td><td style="vertical-align:top;">:</td><td><div>http</div></td></tr><tr><td style="font-weight:bold;vertical-align:top;">wsgi.version</td><td style="vertical-align:top;">:</td><td><div><table><tr><td><div>1</div></td></tr><tr><td><div>0</div></td></tr></table></div></td></tr><tr><td style="font-weight:bold;vertical-align:top;">wsgi_errors</td><td style="vertical-align:top;">:</td><td><div>&lt;open file &#x27;&lt;stderr&gt;&#x27;, mode &#x27;w&#x27; at 0x0123D0D0&gt;</div></td></tr><tr><td style="font-weight:bold;vertical-align:top;">wsgi_file_wrapper</td><td style="vertical-align:top;">:</td><td><div>&lt;class wsgiref.util.FileWrapper at 0x02661500&gt;</div></td></tr><tr><td style="font-weight:bold;vertical-align:top;">wsgi_input</td><td style="vertical-align:top;">:</td><td><div>&lt;socket._fileobject object at 0x05F40BF0&gt;</div></td></tr><tr><td style="font-weight:bold;vertical-align:top;">wsgi_multiprocess</td><td style="vertical-align:top;">:</td><td><div>False</div></td></tr><tr><td style="font-weight:bold;vertical-align:top;">wsgi_multithread</td><td style="vertical-align:top;">:</td><td><div>True</div></td></tr><tr><td style="font-weight:bold;vertical-align:top;">wsgi_run_once</td><td style="vertical-align:top;">:</td><td><div>False</div></td></tr><tr><td style="font-weight:bold;vertical-align:top;">wsgi_url_scheme</td><td style="vertical-align:top;">:</td><td><div>http</div></td></tr><tr><td style="font-weight:bold;vertical-align:top;">wsgi_version</td><td style="vertical-align:top;">:</td><td><div><table><tr><td><div>1</div></td></tr><tr><td><div>0</div></td></tr></table></div></td></tr></table></div></td></tr><tr><td style="font-weight:bold;vertical-align:top;">extension</td><td style="vertical-align:top;">:</td><td><div>html</div></td></tr><tr><td style="font-weight:bold;vertical-align:top;">folder</td><td style="vertical-align:top;">:</td><td><div>C:\\Users\\standalone\\Documents\\pluralsight-web2py\\web2py\\applications\\pluralsight\\</div></td></tr><tr><td style="font-weight:bold;vertical-align:top;">function</td><td style="vertical-align:top;">:</td><td><div>filter</div></td></tr><tr><td style="font-weight:bold;vertical-align:top;">global_settings</td><td style="vertical-align:top;">:</td><td><div><table><tr><td style="font-weight:bold;vertical-align:top;">app_folders</td><td style="vertical-align:top;">:</td><td><div>set([&#x27;C:\\\\Users\\\\standalone\\\\Documents\\\\pluralsight-web2py\\\\web2py\\\\applications\\\\welcome\\\\&#x27;, &#x27;C:\\\\Users\\\\standalone\\\\Documents\\\\pluralsight-web2py\\\\web2py\\\\applications\\\\admin\\\\&#x27;, &#x27;C:\\\\Users\\\\standalone\\\\Documents\\\\pluralsight-web2py\\\\web2py\\\\applications\\\\pluralsight\\\\&#x27;])</div></td></tr><tr><td style="font-weight:bold;vertical-align:top;">applications_parent</td><td style="vertical-align:top;">:</td><td><div>C:\\Users\\standalone\\Documents\\pluralsight-web2py\\web2py</div></td></tr><tr><td style="font-weight:bold;vertical-align:top;">cmd_args</td><td style="vertical-align:top;">:</td><td><div><table></table></div></td></tr><tr><td style="font-weight:bold;vertical-align:top;">cmd_options</td><td style="vertical-align:top;">:</td><td><div>&lt;Values at 0x2903530: {&#x27;verbose&#x27;: False, &#x27;ip&#x27;: &#x27;127.0.0.1&#x27;, &#x27;debuglevel&#x27;: 30, &#x27;with_scheduler&#x27;: False, &#x27;ips&#x27;: [&#x27;192.168.2.13&#x27;, &#x27;::1&#x27;], &#x27;shutdown_timeout&#x27;: 5, &#x27;taskbar&#x27;: False, &#x27;with_coverage&#x27;: False, &#x27;scheduler_groups&#x27;: None, &#x27;port&#x27;: 8000, &#x27;maxthreads&#x27;: None, &#x27;softcron&#x27;: False, &#x27;server_name&#x27;: &#x27;M063575&#x27;, &#x27;bpython&#x27;: False, &#x27;nogui&#x27;: False, &#x27;pid_filename&#x27;: &#x27;httpserver.pid&#x27;, &#x27;print_errors&#x27;: False, &#x27;extcron&#x27;: False, &#x27;runcron&#x27;: False, &#x27;run_system_tests&#x27;: False, &#x27;test&#x27;: None, &#x27;folder&#x27;: &#x27;C:\\\\Users\\\\standalone\\\\Documents\\\\pluralsight-web2py\\\\web2py&#x27;, &#x27;config&#x27;: &#x27;&#x27;, &#x27;minthreads&#x27;: None, &#x27;shell&#x27;: None, &#x27;run&#x27;: &#x27;&#x27;, &#x27;log_filename&#x27;: &#x27;httpserver.log&#x27;, &#x27;profiler_dir&#x27;: None, &#x27;args&#x27;: [&#x27;&#x27;], &#x27;socket_timeout&#x27;: 5, &#x27;ssl_ca_certificate&#x27;: None, &#x27;scheduler&#x27;: None, &#x27;interfaces&#x27;: None, &#x27;ssl_private_key&#x27;: &#x27;&#x27;, &#x27;gae&#x27;: None, &#x27;password&#x27;: &#x27;&lt;ask&gt;&#x27;, &#x27;request_queue_size&#x27;: 5, &#x27;ssl_certificate&#x27;: &#x27;&#x27;, &#x27;cronjob&#x27;: False, &#x27;numthreads&#x27;: None, &#x27;quiet&#x27;: False, &#x27;import_models&#x27;: False, &#x27;timeout&#x27;: 10, &#x27;plain&#x27;: False, &#x27;nobanner&#x27;: False}&gt;</div></td></tr><tr><td style="font-weight:bold;vertical-align:top;">db_sessions</td><td style="vertical-align:top;">:</td><td><div>set([])</div></td></tr><tr><td style="font-weight:bold;vertical-align:top;">debugging</td><td style="vertical-align:top;">:</td><td><div>True</div></td></tr><tr><td style="font-weight:bold;vertical-align:top;">gluon_parent</td><td style="vertical-align:top;">:</td><td><div>C:\\Users\\standalone\\Documents\\pluralsight-web2py\\web2py</div></td></tr><tr><td style="font-weight:bold;vertical-align:top;">is_jython</td><td style="vertical-align:top;">:</td><td><div>False</div></td></tr><tr><td style="font-weight:bold;vertical-align:top;">is_pypy</td><td style="vertical-align:top;">:</td><td><div>False</div></td></tr><tr><td style="font-weight:bold;vertical-align:top;">is_source</td><td style="vertical-align:top;">:</td><td><div>False</div></td></tr><tr><td style="font-weight:bold;vertical-align:top;">local_hosts</td><td style="vertical-align:top;">:</td><td><div><table><tr><td><div>192.168.2.13</div></td></tr><tr><td><div>::ffff:127.0.0.1</div></td></tr><tr><td><div>::1</div></td></tr><tr><td><div>M063575</div></td></tr><tr><td><div>M063575.calegis.net</div></td></tr><tr><td><div>127.0.0.1</div></td></tr></table></div></td></tr><tr><td style="font-weight:bold;vertical-align:top;">web2py_version</td><td style="vertical-align:top;">:</td><td><div>2.10.4-stable+timestamp.2015.04.26.15.11.54</div></td></tr></table></div></td></tr><tr><td style="font-weight:bold;vertical-align:top;">is_https</td><td style="vertical-align:top;">:</td><td><div>False</div></td></tr><tr><td style="font-weight:bold;vertical-align:top;">is_local</td><td style="vertical-align:top;">:</td><td><div>True</div></td></tr><tr><td style="font-weight:bold;vertical-align:top;">is_restful</td><td style="vertical-align:top;">:</td><td><div>False</div></td></tr><tr><td style="font-weight:bold;vertical-align:top;">is_sheduler</td><td style="vertical-align:top;">:</td><td><div>None</div></td></tr><tr><td style="font-weight:bold;vertical-align:top;">is_shell</td><td style="vertical-align:top;">:</td><td><div>None</div></td></tr><tr><td style="font-weight:bold;vertical-align:top;">now</td><td style="vertical-align:top;">:</td><td><div>datetime.datetime(2015, 6, 11, 11, 29, 24, 530000)</div></td></tr><tr><td style="font-weight:bold;vertical-align:top;">raw_args</td><td style="vertical-align:top;">:</td><td><div></div></td></tr><tr><td style="font-weight:bold;vertical-align:top;">raw_extension</td><td style="vertical-align:top;">:</td><td><div>None</div></td></tr><tr><td style="font-weight:bold;vertical-align:top;">url</td><td style="vertical-align:top;">:</td><td><div>/pluralsight/contacts/filter</div></td></tr><tr><td style="font-weight:bold;vertical-align:top;">utcnow</td><td style="vertical-align:top;">:</td><td><div>datetime.datetime(2015, 6, 11, 18, 29, 24, 530000)</div></td></tr><tr><td style="font-weight:bold;vertical-align:top;">uuid</td><td style="vertical-align:top;">:</td><td><div>pluralsight/127.0.0.1.2015-06-11.11-29-24.441d6323-d47a-4410-b3e0-0f3b2535a542</div></td></tr><tr><td style="font-weight:bold;vertical-align:top;">wsgi</td><td style="vertical-align:top;">:</td><td><div>&lt;gluon.main.LazyWSGI object at 0x06FC6770&gt;</div></td></tr></table></div>'
tRp58
sS'frames'
p59
(lp60
(dp61
S'file'
p62
S'C:\\Users\\standalone\\Documents\\pluralsight-web2py\\web2py\\gluon\\restricted.py'
p63
sS'dump'
p64
(dp65
S'environment'
p66
S"{'A': <class 'gluon.html.A'>, 'ANY_OF': <class 'gluon.validators.ANY_OF'>, 'ASSIGNJS': <function ASSIGNJS>, 'AppConfig': <function AppConfig>, 'Auth': <class 'gluon.tools.Auth'>, 'B': <class 'gluon.html.B'>, 'BEAUTIFY': <class 'gluon.html.BEAUTIFY'>, 'BODY': <class 'gluon.html.BODY'>, 'BR': <class 'gluon.html.BR'>, 'BUTTON': <class 'gluon.html.BUTTON'>, ...}"
p67
sS'ccode'
p68
S'<code object <module> at 06FBB4A0, file "C:\\User...ons\\pluralsight\\controllers/contacts.py", line 3>'
p69
ssS'lnum'
p70
I227
sS'lines'
p71
(dp72
I224
S'            ccode = code'
p73
sI225
S'        else:'
p74
sI226
S'            ccode = compile2(code, layer)'
p75
sI227
S'        exec ccode in environment'
p76
sI228
S'    except HTTP:'
p77
sI229
S'        raise'
p78
sI230
S'    except RestrictedError:'
p79
sI231
S'        # do not encapsulate (obfuscate) the original RestrictedError'
p80
sI222
S'    try:'
p81
sI223
S'        if isinstance(code, types.CodeType):'
p82
ssS'call'
p83
S"(code='# -*- coding: utf-8 -*-\\n# try something like\\ndef...ocals()\\n\\nresponse._vars=response._caller(filter)\\n', environment={'A': <class 'gluon.html.A'>, 'ANY_OF': <class 'gluon.validators.ANY_OF'>, 'ASSIGNJS': <function ASSIGNJS>, 'AppConfig': <function AppConfig>, 'Auth': <class 'gluon.tools.Auth'>, 'B': <class 'gluon.html.B'>, 'BEAUTIFY': <class 'gluon.html.BEAUTIFY'>, 'BODY': <class 'gluon.html.BODY'>, 'BR': <class 'gluon.html.BR'>, 'BUTTON': <class 'gluon.html.BUTTON'>, ...}, layer=r'C:\\Users\\standalone\\Documents\\pluralsight-web2py...\\applications\\pluralsight\\controllers/contacts.py')"
p84
sS'func'
p85
S'restricted'
p86
sa(dp87
g62
S'C:\\Users\\standalone\\Documents\\pluralsight-web2py\\web2py\\applications\\pluralsight\\controllers\\contacts.py'
p88
sg64
(dp89
sg70
I24
sg71
(dp90
I13
S'    rows_all = db(db.contacts.last_name, db.contacts.first_name, db.contacts.state_name).select()'
p91
sI14
S'    # get all records'
p92
sI15
S'    rows_sorted_by_name = db(db.contacts).select(orderby=db.contacts.last_name | db.contacts.first_name)'
p93
sI16
S'    # filter, show only those in ACT department'
p94
sI17
S"    rows_startswith = db(db.contacts.last_name.startswith('A')).select(orderby=db.contacts.state_name | db.contacts.last_name)"
p95
sI18
S'    # filter, show on those with id greater than 5'
p96
sI19
S"    rows_by_state = db(db.contacts.state_name=='CA').select(orderby=db.contacts.last_name | db.contacts.first_name)"
p97
sI20
S'    # boolean logic:  & (and); | (or)'
p98
sI21
S"    rows_combo = db((db.contacts.state_name=='CA') & (db.contacts.last_name.startswith('A'))).select(orderby=db.contacts.last_name)"
p99
sI22
S'    return locals()'
p100
ssg83
S'()'
p101
sg85
S'<module>'
p102
sa(dp103
g62
S'C:\\Users\\standalone\\Documents\\pluralsight-web2py\\web2py\\gluon\\globals.py'
p104
sg64
(dp105
S'self'
p106
S'undefined'
p107
sS'f'
S'<function filter>'
p108
ssg70
I393
sg71
(dp109
I388
S"        self.flash = ''            # used by the default view layout"
p110
sI389
S'        self.meta = Storage()      # used by web2py_ajax.html'
p111
sI390
S'        self.menu = []             # used by the default view layout'
p112
sI391
S'        self.files = []            # used by web2py_ajax.html'
p113
sI392
S'        self._vars = None'
p114
sI393
S'        self._caller = lambda f: f()'
p115
sI394
S'        self._view_environment = None'
p116
sI395
S'        self._custom_commit = None'
p117
sI396
S'        self._custom_rollback = None'
p118
sI397
S"        self.generic_patterns = ['*']"
p119
ssg83
S'(f=<function filter>)'
p120
sg85
S'<lambda>'
p121
sa(dp122
g62
S'C:\\Users\\standalone\\Documents\\pluralsight-web2py\\web2py\\applications\\pluralsight\\controllers\\contacts.py'
p123
sg64
(dp124
S'db.contacts.last_name'
p125
S'<pydal.objects.Field object>'
p126
sS'db.contacts.state_name'
p127
S'<pydal.objects.Field object>'
p128
sS'db.contacts'
p129
S'<Table contacts (id,first_name,last_name,company...y,county,state_name,zip,phone1,phone2,email,web)>'
p130
sS').select'
p131
g107
sS'rows_all'
p132
g107
sS'global db'
p133
S'<DAL uri="sqlite://storage.sqlite">'
p134
sS'db.contacts.first_name'
p135
S'<pydal.objects.Field object>'
p136
ssg70
I13
sg71
(dp137
I8
S''
sI9
S'def filter():'
p138
sI10
S'    # get count'
p139
sI11
S'    rows_count = db(db.contacts).count()'
p140
sI12
S'    # get all records'
p141
sI13
S'    rows_all = db(db.contacts.last_name, db.contacts.first_name, db.contacts.state_name).select()'
p142
sI14
S'    # get all records'
p143
sI15
S'    rows_sorted_by_name = db(db.contacts).select(orderby=db.contacts.last_name | db.contacts.first_name)'
p144
sI16
S'    # filter, show only those in ACT department'
p145
sI17
S"    rows_startswith = db(db.contacts.last_name.startswith('A')).select(orderby=db.contacts.state_name | db.contacts.last_name)"
p146
ssg83
S'()'
p147
sg85
S'filter'
p148
sasS'pyver'
p149
S'Python 2.7.9: C:\\Users\\standalone\\Documents\\pluralsight-web2py\\web2py\\web2py.exe (prefix: )'
p150
sS'session'
p151
g57
(S's\x1a\x00\x00\x00<div><table></table></div>'
tRp152
sS'etype'
p153
S"<type 'exceptions.TypeError'>"
p154
sS'date'
p155
S'Thu Jun 11 11:29:24 2015'
p156
sS'response'
p157
g57
(S's\xbb>\x00\x00<div><table><tr><td style="font-weight:bold;vertical-align:top;">body</td><td style="vertical-align:top;">:</td><td><div>&lt;cStringIO.StringO object at 0x06A2C9C0&gt;</div></td></tr><tr><td style="font-weight:bold;vertical-align:top;">cookies</td><td style="vertical-align:top;">:</td><td><div><table><tr><td style="font-weight:bold;vertical-align:top;">session_id_pluralsight</td><td style="vertical-align:top;">:</td><td><div>127.0.0.1-a7800f9a-5e7d-41ed-8e35-05742ca7450e<table><tr><td style="font-weight:bold;vertical-align:top;">comment</td><td style="vertical-align:top;">:</td><td><div></div></td></tr><tr><td style="font-weight:bold;vertical-align:top;">domain</td><td style="vertical-align:top;">:</td><td><div></div></td></tr><tr><td style="font-weight:bold;vertical-align:top;">expires</td><td style="vertical-align:top;">:</td><td><div></div></td></tr><tr><td style="font-weight:bold;vertical-align:top;">httponly</td><td style="vertical-align:top;">:</td><td><div></div></td></tr><tr><td style="font-weight:bold;vertical-align:top;">max-age</td><td style="vertical-align:top;">:</td><td><div></div></td></tr><tr><td style="font-weight:bold;vertical-align:top;">path</td><td style="vertical-align:top;">:</td><td><div>/</div></td></tr><tr><td style="font-weight:bold;vertical-align:top;">secure</td><td style="vertical-align:top;">:</td><td><div></div></td></tr><tr><td style="font-weight:bold;vertical-align:top;">version</td><td style="vertical-align:top;">:</td><td><div></div></td></tr></table></div></td></tr></table></div></td></tr><tr><td style="font-weight:bold;vertical-align:top;">delimiters</td><td style="vertical-align:top;">:</td><td><div><table><tr><td><div>{{</div></td></tr><tr><td><div>}}</div></td></tr></table></div></td></tr><tr><td style="font-weight:bold;vertical-align:top;">files</td><td style="vertical-align:top;">:</td><td><div><table></table></div></td></tr><tr><td style="font-weight:bold;vertical-align:top;">flash</td><td style="vertical-align:top;">:</td><td><div></div></td></tr><tr><td style="font-weight:bold;vertical-align:top;">form_label_separator</td><td style="vertical-align:top;">:</td><td><div></div></td></tr><tr><td style="font-weight:bold;vertical-align:top;">formstyle</td><td style="vertical-align:top;">:</td><td><div>bootstrap3_inline</div></td></tr><tr><td style="font-weight:bold;vertical-align:top;">generic_patterns</td><td style="vertical-align:top;">:</td><td><div><table><tr><td><div>*</div></td></tr></table></div></td></tr><tr><td style="font-weight:bold;vertical-align:top;">google_analytics_id</td><td style="vertical-align:top;">:</td><td><div>None</div></td></tr><tr><td style="font-weight:bold;vertical-align:top;">headers</td><td style="vertical-align:top;">:</td><td><div><table><tr><td style="font-weight:bold;vertical-align:top;">X-Powered-By</td><td style="vertical-align:top;">:</td><td><div>web2py</div></td></tr></table></div></td></tr><tr><td style="font-weight:bold;vertical-align:top;">logo</td><td style="vertical-align:top;">:</td><td><div><a class="navbar-brand" href="http://www.web2py.com/" id="web2py-logo"><b>web<span>2</span>py</b>&trade;&nbsp;</a></div></td></tr><tr><td style="font-weight:bold;vertical-align:top;">menu</td><td style="vertical-align:top;">:</td><td><div><table><tr><td><div><table><tr><td><div>Home</div></td></tr><tr><td><div>False</div></td></tr><tr><td><div>/pluralsight/default/index</div></td></tr><tr><td><div><table></table></div></td></tr></table></div></td></tr><tr><td><div><table><tr><td><div>My Sites</div></td></tr><tr><td><div>False</div></td></tr><tr><td><div>/admin/default/site</div></td></tr></table></div></td></tr><tr><td><div><table><tr><td><div>This App</div></td></tr><tr><td><div>False</div></td></tr><tr><td><div>#</div></td></tr><tr><td><div><table><tr><td><div><table><tr><td><div>Design</div></td></tr><tr><td><div>False</div></td></tr><tr><td><div>/admin/default/design/pluralsight</div></td></tr></table></div></td></tr><tr><td><div><li class="divider"></li></div></td></tr><tr><td><div><table><tr><td><div>Controller</div></td></tr><tr><td><div>False</div></td></tr><tr><td><div>/admin/default/edit/pluralsight/controllers/contacts.py</div></td></tr></table></div></td></tr><tr><td><div><table><tr><td><div>View</div></td></tr><tr><td><div>False</div></td></tr><tr><td><div>/admin/default/edit/pluralsight/views/contacts/filter.html</div></td></tr></table></div></td></tr><tr><td><div><table><tr><td><div>DB Model</div></td></tr><tr><td><div>False</div></td></tr><tr><td><div>/admin/default/edit/pluralsight/models/db.py</div></td></tr></table></div></td></tr><tr><td><div><table><tr><td><div>Menu Model</div></td></tr><tr><td><div>False</div></td></tr><tr><td><div>/admin/default/edit/pluralsight/models/menu.py</div></td></tr></table></div></td></tr><tr><td><div><table><tr><td><div>Config.ini</div></td></tr><tr><td><div>False</div></td></tr><tr><td><div>/admin/default/edit/pluralsight/private/appconfig.ini</div></td></tr></table></div></td></tr><tr><td><div><table><tr><td><div>Layout</div></td></tr><tr><td><div>False</div></td></tr><tr><td><div>/admin/default/edit/pluralsight/views/layout.html</div></td></tr></table></div></td></tr><tr><td><div><table><tr><td><div>Stylesheet</div></td></tr><tr><td><div>False</div></td></tr><tr><td><div>/admin/default/edit/pluralsight/static/css/web2py-bootstrap3.css</div></td></tr></table></div></td></tr><tr><td><div><table><tr><td><div>Database</div></td></tr><tr><td><div>False</div></td></tr><tr><td><div>/pluralsight/appadmin/index</div></td></tr></table></div></td></tr><tr><td><div><table><tr><td><div>Errors</div></td></tr><tr><td><div>False</div></td></tr><tr><td><div>/admin/default/errors/pluralsight</div></td></tr></table></div></td></tr><tr><td><div><table><tr><td><div>About</div></td></tr><tr><td><div>False</div></td></tr><tr><td><div>/admin/default/about/pluralsight</div></td></tr></table></div></td></tr></table></div></td></tr></table></div></td></tr><tr><td><div><table><tr><td><div>web2py.com</div></td></tr><tr><td><div>False</div></td></tr><tr><td><div>#</div></td></tr><tr><td><div><table><tr><td><div><table><tr><td><div>Download</div></td></tr><tr><td><div>False</div></td></tr><tr><td><div>http://www.web2py.com/examples/default/download</div></td></tr></table></div></td></tr><tr><td><div><table><tr><td><div>Support</div></td></tr><tr><td><div>False</div></td></tr><tr><td><div>http://www.web2py.com/examples/default/support</div></td></tr></table></div></td></tr><tr><td><div><table><tr><td><div>Demo</div></td></tr><tr><td><div>False</div></td></tr><tr><td><div>http://web2py.com/demo_admin</div></td></tr></table></div></td></tr><tr><td><div><table><tr><td><div>Quick Examples</div></td></tr><tr><td><div>False</div></td></tr><tr><td><div>http://web2py.com/examples/default/examples</div></td></tr></table></div></td></tr><tr><td><div><table><tr><td><div>FAQ</div></td></tr><tr><td><div>False</div></td></tr><tr><td><div>http://web2py.com/AlterEgo</div></td></tr></table></div></td></tr><tr><td><div><table><tr><td><div>Videos</div></td></tr><tr><td><div>False</div></td></tr><tr><td><div>http://www.web2py.com/examples/default/videos/</div></td></tr></table></div></td></tr><tr><td><div><table><tr><td><div>Free Applications</div></td></tr><tr><td><div>False</div></td></tr><tr><td><div>http://web2py.com/appliances</div></td></tr></table></div></td></tr><tr><td><div><table><tr><td><div>Plugins</div></td></tr><tr><td><div>False</div></td></tr><tr><td><div>http://web2py.com/plugins</div></td></tr></table></div></td></tr><tr><td><div><table><tr><td><div>Recipes</div></td></tr><tr><td><div>False</div></td></tr><tr><td><div>http://web2pyslices.com/</div></td></tr></table></div></td></tr></table></div></td></tr></table></div></td></tr><tr><td><div><table><tr><td><div>Documentation</div></td></tr><tr><td><div>False</div></td></tr><tr><td><div>#</div></td></tr><tr><td><div><table><tr><td><div><table><tr><td><div>Online book</div></td></tr><tr><td><div>False</div></td></tr><tr><td><div>http://www.web2py.com/book</div></td></tr></table></div></td></tr><tr><td><div><li class="divider"></li></div></td></tr><tr><td><div><table><tr><td><div>Preface</div></td></tr><tr><td><div>False</div></td></tr><tr><td><div>http://www.web2py.com/book/default/chapter/00</div></td></tr></table></div></td></tr><tr><td><div><table><tr><td><div>Introduction</div></td></tr><tr><td><div>False</div></td></tr><tr><td><div>http://www.web2py.com/book/default/chapter/01</div></td></tr></table></div></td></tr><tr><td><div><table><tr><td><div>Python</div></td></tr><tr><td><div>False</div></td></tr><tr><td><div>http://www.web2py.com/book/default/chapter/02</div></td></tr></table></div></td></tr><tr><td><div><table><tr><td><div>Overview</div></td></tr><tr><td><div>False</div></td></tr><tr><td><div>http://www.web2py.com/book/default/chapter/03</div></td></tr></table></div></td></tr><tr><td><div><table><tr><td><div>The Core</div></td></tr><tr><td><div>False</div></td></tr><tr><td><div>http://www.web2py.com/book/default/chapter/04</div></td></tr></table></div></td></tr><tr><td><div><table><tr><td><div>The Views</div></td></tr><tr><td><div>False</div></td></tr><tr><td><div>http://www.web2py.com/book/default/chapter/05</div></td></tr></table></div></td></tr><tr><td><div><table><tr><td><div>Database</div></td></tr><tr><td><div>False</div></td></tr><tr><td><div>http://www.web2py.com/book/default/chapter/06</div></td></tr></table></div></td></tr><tr><td><div><table><tr><td><div>Forms and Validators</div></td></tr><tr><td><div>False</div></td></tr><tr><td><div>http://www.web2py.com/book/default/chapter/07</div></td></tr></table></div></td></tr><tr><td><div><table><tr><td><div>Email and SMS</div></td></tr><tr><td><div>False</div></td></tr><tr><td><div>http://www.web2py.com/book/default/chapter/08</div></td></tr></table></div></td></tr><tr><td><div><table><tr><td><div>Access Control</div></td></tr><tr><td><div>False</div></td></tr><tr><td><div>http://www.web2py.com/book/default/chapter/09</div></td></tr></table></div></td></tr><tr><td><div><table><tr><td><div>Services</div></td></tr><tr><td><div>False</div></td></tr><tr><td><div>http://www.web2py.com/book/default/chapter/10</div></td></tr></table></div></td></tr><tr><td><div><table><tr><td><div>Ajax Recipes</div></td></tr><tr><td><div>False</div></td></tr><tr><td><div>http://www.web2py.com/book/default/chapter/11</div></td></tr></table></div></td></tr><tr><td><div><table><tr><td><div>Components and Plugins</div></td></tr><tr><td><div>False</div></td></tr><tr><td><div>http://www.web2py.com/book/default/chapter/12</div></td></tr></table></div></td></tr><tr><td><div><table><tr><td><div>Deployment Recipes</div></td></tr><tr><td><div>False</div></td></tr><tr><td><div>http://www.web2py.com/book/default/chapter/13</div></td></tr></table></div></td></tr><tr><td><div><table><tr><td><div>Other Recipes</div></td></tr><tr><td><div>False</div></td></tr><tr><td><div>http://www.web2py.com/book/default/chapter/14</div></td></tr></table></div></td></tr><tr><td><div><table><tr><td><div>Helping web2py</div></td></tr><tr><td><div>False</div></td></tr><tr><td><div>http://www.web2py.com/book/default/chapter/15</div></td></tr></table></div></td></tr><tr><td><div><table><tr><td><div>Buy web2py\'s book</div></td></tr><tr><td><div>False</div></td></tr><tr><td><div>http://stores.lulu.com/web2py</div></td></tr></table></div></td></tr></table></div></td></tr></table></div></td></tr><tr><td><div><table><tr><td><div>Community</div></td></tr><tr><td><div>False</div></td></tr><tr><td><div>None</div></td></tr><tr><td><div><table><tr><td><div><table><tr><td><div>Groups</div></td></tr><tr><td><div>False</div></td></tr><tr><td><div>http://www.web2py.com/examples/default/usergroups</div></td></tr></table></div></td></tr><tr><td><div><table><tr><td><div>Twitter</div></td></tr><tr><td><div>False</div></td></tr><tr><td><div>http://twitter.com/web2py</div></td></tr></table></div></td></tr><tr><td><div><table><tr><td><div>Live Chat</div></td></tr><tr><td><div>False</div></td></tr><tr><td><div>http://webchat.freenode.net/?channels=web2py</div></td></tr></table></div></td></tr></table></div></td></tr></table></div></td></tr></table></div></td></tr><tr><td style="font-weight:bold;vertical-align:top;">meta</td><td style="vertical-align:top;">:</td><td><div><table><tr><td style="font-weight:bold;vertical-align:top;">author</td><td style="vertical-align:top;">:</td><td><div>Your Name &lt;you@example.com&gt;</div></td></tr><tr><td style="font-weight:bold;vertical-align:top;">description</td><td style="vertical-align:top;">:</td><td><div>a cool new app</div></td></tr><tr><td style="font-weight:bold;vertical-align:top;">generator</td><td style="vertical-align:top;">:</td><td><div>Web2py Web Framework</div></td></tr><tr><td style="font-weight:bold;vertical-align:top;">keywords</td><td style="vertical-align:top;">:</td><td><div>web2py, python, framework</div></td></tr></table></div></td></tr><tr><td style="font-weight:bold;vertical-align:top;">models_to_run</td><td style="vertical-align:top;">:</td><td><div><table><tr><td><div>^\\w+\\.py$</div></td></tr><tr><td><div>^contacts/\\w+\\.py$</div></td></tr><tr><td><div>^contacts/filter/\\w+\\.py$</div></td></tr></table></div></td></tr><tr><td style="font-weight:bold;vertical-align:top;">postprocessing</td><td style="vertical-align:top;">:</td><td><div><table></table></div></td></tr><tr><td style="font-weight:bold;vertical-align:top;">session_client</td><td style="vertical-align:top;">:</td><td><div>127.0.0.1</div></td></tr><tr><td style="font-weight:bold;vertical-align:top;">session_cookie_compression_level</td><td style="vertical-align:top;">:</td><td><div>None</div></td></tr><tr><td style="font-weight:bold;vertical-align:top;">session_cookie_expires</td><td style="vertical-align:top;">:</td><td><div>None</div></td></tr><tr><td style="font-weight:bold;vertical-align:top;">session_cookie_key</td><td style="vertical-align:top;">:</td><td><div>None</div></td></tr><tr><td style="font-weight:bold;vertical-align:top;">session_data_name</td><td style="vertical-align:top;">:</td><td><div>session_data_pluralsight</div></td></tr><tr><td style="font-weight:bold;vertical-align:top;">session_file</td><td style="vertical-align:top;">:</td><td><div>None</div></td></tr><tr><td style="font-weight:bold;vertical-align:top;">session_filename</td><td style="vertical-align:top;">:</td><td><div>C:\\Users\\standalone\\Documents\\pluralsight-web2py\\web2py\\applications\\pluralsight\\sessions\\127.0.0.1-a7800f9a-5e7d-41ed-8e35-05742ca7450e</div></td></tr><tr><td style="font-weight:bold;vertical-align:top;">session_hash</td><td style="vertical-align:top;">:</td><td><div>c0762cbf4baf7f9af97c051e7fcb8083</div></td></tr><tr><td style="font-weight:bold;vertical-align:top;">session_id</td><td style="vertical-align:top;">:</td><td><div>127.0.0.1-a7800f9a-5e7d-41ed-8e35-05742ca7450e</div></td></tr><tr><td style="font-weight:bold;vertical-align:top;">session_id_name</td><td style="vertical-align:top;">:</td><td><div>session_id_pluralsight</div></td></tr><tr><td style="font-weight:bold;vertical-align:top;">session_masterapp</td><td style="vertical-align:top;">:</td><td><div>pluralsight</div></td></tr><tr><td style="font-weight:bold;vertical-align:top;">session_new</td><td style="vertical-align:top;">:</td><td><div>True</div></td></tr><tr><td style="font-weight:bold;vertical-align:top;">session_storage_type</td><td style="vertical-align:top;">:</td><td><div>file</div></td></tr><tr><td style="font-weight:bold;vertical-align:top;">status</td><td style="vertical-align:top;">:</td><td><div>200</div></td></tr><tr><td style="font-weight:bold;vertical-align:top;">subtitle</td><td style="vertical-align:top;">:</td><td><div></div></td></tr><tr><td style="font-weight:bold;vertical-align:top;">title</td><td style="vertical-align:top;">:</td><td><div>Pluralsight</div></td></tr><tr><td style="font-weight:bold;vertical-align:top;">view</td><td style="vertical-align:top;">:</td><td><div>contacts/filter.html</div></td></tr></table></div>'
tRp158
sS'locals'
p159
(dp160
S'rows_count'
p161
S'495'
p162
sssS'traceback'
p163
S'Traceback (most recent call last):\n  File "C:\\Users\\standalone\\Documents\\pluralsight-web2py\\web2py\\gluon\\restricted.py", line 227, in restricted\n    exec ccode in environment\n  File "C:\\Users\\standalone\\Documents\\pluralsight-web2py\\web2py\\applications\\pluralsight\\controllers/contacts.py", line 24, in <module>\n  File "C:\\Users\\standalone\\Documents\\pluralsight-web2py\\web2py\\gluon\\globals.py", line 393, in <lambda>\n    self._caller = lambda f: f()\n  File "C:\\Users\\standalone\\Documents\\pluralsight-web2py\\web2py\\applications\\pluralsight\\controllers/contacts.py", line 13, in filter\n    rows_all = db(db.contacts.last_name, db.contacts.first_name, db.contacts.state_name).select()\nTypeError: __call__() takes at most 3 arguments (4 given)\n'
p164
s.